target datalayout = "e-m:e-p270:32:32-p271:32:32-p272:64:64-i64:64-i128:128-f80:128-n8:16:32:64-S128"
target triple = "x86_64-pc-linux-gnu"

%class.DCmd = type <{ ptr, ptr, i8, [7 x i8] }>

; Function Attrs: mustprogress nounwind uwtable
define linkonce_odr hidden void @_ZN4DCmdC2EP12outputStreamb(ptr noundef nonnull align 8 dereferenceable(17) %0, ptr noundef %1, i1 noundef zeroext %2) unnamed_addr #1 comdat align 2 {
  %4 = alloca ptr, align 8
  %5 = alloca ptr, align 8
  %6 = alloca i8, align 1
  store ptr %0, ptr %4, align 8
  store ptr %1, ptr %5, align 8
  %7 = zext i1 %2 to i8
  store i8 %7, ptr %6, align 1
  %8 = load ptr, ptr %4, align 8
  store ptr getelementptr inbounds inrange(-16, 56) ({ [9 x ptr] }, ptr @_ZTV4DCmd, i32 0, i32 0, i32 2), ptr %8, align 8
  %9 = getelementptr inbounds %class.DCmd, ptr %8, i32 0, i32 1
  %10 = load ptr, ptr %5, align 8
  store ptr %10, ptr %9, align 8
  %11 = getelementptr inbounds %class.DCmd, ptr %8, i32 0, i32 2
  %12 = load i8, ptr %6, align 1
  %13 = trunc i8 %12 to i1
  %14 = zext i1 %13 to i8
  store i8 %14, ptr %11, align 8
  ret void
}

; Function Attrs: mustprogress nounwind uwtable
define hidden void @_ZN22VMDynamicLibrariesDCmdC2EP12outputStreamb(ptr noundef nonnull align 8 dereferenceable(17) %0, ptr noundef %1, i1 noundef zeroext %2) unnamed_addr #1 align 2 {
  %4 = alloca ptr, align 8
  %5 = alloca ptr, align 8
  %6 = alloca i8, align 1
  store ptr %0, ptr %4, align 8
  store ptr %1, ptr %5, align 8
  %7 = zext i1 %2 to i8
  store i8 %7, ptr %6, align 1
  %8 = load ptr, ptr %4, align 8
  %9 = load ptr, ptr %5, align 8
  %10 = load i8, ptr %6, align 1
  %11 = trunc i8 %10 to i1
  call void @_ZN4DCmdC2EP12outputStreamb(ptr noundef nonnull align 8 dereferenceable(17) %8, ptr noundef %9, i1 noundef zeroext %11)
  store ptr getelementptr inbounds inrange(-16, 56) ({ [9 x ptr] }, ptr @_ZTV22VMDynamicLibrariesDCmd, i32 0, i32 0, i32 2), ptr %8, align 8
  ret void
}