; Function Attrs: mustprogress nofree norecurse nosync nounwind willreturn memory(argmem: write) uwtable
define hidden void @_ZN22VMDynamicLibrariesDCmdC2EP12outputStreamb(ptr nocapture noundef nonnull writeonly align 8 dereferenceable(17) %0, ptr noundef %1, i1 noundef zeroext %2) unnamed_addr #7 align 2 {
  %4 = zext i1 %2 to i8
  %5 = getelementptr inbounds i8, ptr %0, i64 8
  store ptr %1, ptr %5, align 8
  %6 = getelementptr inbounds i8, ptr %0, i64 16
  store i8 %4, ptr %6, align 8
  store ptr getelementptr inbounds inrange(-16, 56) (i8, ptr @_ZTV22VMDynamicLibrariesDCmd, i64 16), ptr %0, align 8
  ret void
}